; Function Attrs: nounwind sspstrong uwtable
define internal i64 @path_entries(i64 noundef %0) #0 {
  %2 = alloca i64, align 8
  %3 = tail call i64 @rb_obj_class(i64 noundef %0) #7
  %4 = load i64, ptr @id_at_path, align 8, !tbaa !6
  %5 = tail call i64 @rb_ivar_get(i64 noundef %0, i64 noundef %4) #7
  %6 = icmp eq i64 %5, 0
  %7 = and i64 %5, 7
  %8 = icmp ne i64 %7, 0
  %9 = or i1 %6, %8
  br i1 %9, label %rbimpl_RB_TYPE_P_fastpath.exit.thread.i, label %rbimpl_RB_TYPE_P_fastpath.exit.i

rbimpl_RB_TYPE_P_fastpath.exit.i:                 ; preds = %1
  %10 = inttoptr i64 %5 to ptr
  %11 = load i64, ptr %10, align 8, !tbaa !10
  %12 = and i64 %11, 31
  %13 = icmp eq i64 %12, 5
  br i1 %13, label %get_strpath.exit, label %rbimpl_RB_TYPE_P_fastpath.exit.thread.i

rbimpl_RB_TYPE_P_fastpath.exit.thread.i:          ; preds = %rbimpl_RB_TYPE_P_fastpath.exit.i, %1
  %14 = load i64, ptr @rb_eTypeError, align 8, !tbaa !6
  tail call void (i64, ptr, ...) @rb_raise(i64 noundef %14, ptr noundef nonnull @.str.91) #9
  unreachable

get_strpath.exit:                                 ; preds = %rbimpl_RB_TYPE_P_fastpath.exit.i
  %15 = load i64, ptr @rb_cDir, align 8, !tbaa !6
  %16 = load i64, ptr @id_entries, align 8, !tbaa !6
  %17 = tail call i64 (i64, i64, i32, ...) @rb_funcall(i64 noundef %15, i64 noundef %16, i32 noundef 1, i64 noundef %5) #7
  %18 = tail call i64 @rb_convert_type(i64 noundef %17, i32 noundef 7, ptr noundef nonnull @.str.98, ptr noundef nonnull @.str.99) #7
  %19 = inttoptr i64 %18 to ptr
  %20 = getelementptr inbounds nuw i8, ptr %19, i64 16
  %21 = getelementptr inbounds nuw i8, ptr %19, i64 32
  br label %22

22:                                               ; preds = %rb_array_const_ptr.exit, %get_strpath.exit
  %.0 = phi i64 [ 0, %get_strpath.exit ], [ %35, %rb_array_const_ptr.exit ]
  %23 = load i64, ptr %19, align 8, !tbaa !10
  %24 = and i64 %23, 8192
  %.not.i = icmp eq i64 %24, 0
  br i1 %.not.i, label %rb_array_len.exit, label %rb_array_len.exit.thread

rb_array_len.exit:                                ; preds = %22
  %25 = load i64, ptr %20, align 8, !tbaa !20
  %26 = icmp slt i64 %.0, %25
  br i1 %26, label %30, label %36

rb_array_len.exit.thread:                         ; preds = %22
  %27 = lshr i64 %23, 15
  %28 = and i64 %27, 127
  %29 = icmp samesign ult i64 %.0, %28
  br i1 %29, label %.thread, label %36

.thread:                                          ; preds = %rb_array_len.exit.thread
  call void @llvm.lifetime.start.p0(i64 8, ptr nonnull %2) #7
  br label %rb_array_const_ptr.exit

30:                                               ; preds = %rb_array_len.exit
  call void @llvm.lifetime.start.p0(i64 8, ptr nonnull %2) #7
  %31 = load ptr, ptr %21, align 8, !tbaa !20
  br label %rb_array_const_ptr.exit

rb_array_const_ptr.exit:                          ; preds = %.thread, %30
  %.0.i14 = phi ptr [ %31, %30 ], [ %20, %.thread ]
  %32 = getelementptr inbounds nuw i64, ptr %.0.i14, i64 %.0
  %33 = load i64, ptr %32, align 8, !tbaa !6
  store i64 %33, ptr %2, align 8, !tbaa !6
  %34 = call i64 @rb_class_new_instance(i32 noundef 1, ptr noundef nonnull %2, i64 noundef %3) #7
  store i64 %34, ptr %2, align 8, !tbaa !6
  call void @rb_ary_store(i64 noundef %18, i64 noundef %.0, i64 noundef %34) #7
  call void @llvm.lifetime.end.p0(i64 8, ptr nonnull %2) #7
  %35 = add nuw nsw i64 %.0, 1
  br label %22, !llvm.loop !34

36:                                               ; preds = %rb_array_len.exit.thread, %rb_array_len.exit
  ret i64 %18
}